; Function Attrs: mustprogress nounwind uwtable
define dso_local void @_ZNK4llvm3pdb9PDBSymbol20findInlineeLinesByVAEmj(ptr dead_on_unwind noalias writable sret(%"class.std::unique_ptr.20") align 8 %0, ptr nocapture noundef nonnull readonly align 8 dereferenceable(32) %1, i64 noundef %2, i32 noundef %3) local_unnamed_addr #2 align 2 {
  %5 = getelementptr inbounds nuw i8, ptr %1, i64 24
  %6 = load ptr, ptr %5, align 8
  %7 = load ptr, ptr %6, align 8
  %8 = getelementptr inbounds i8, ptr %7, i64 112
  %9 = load ptr, ptr %8, align 8
  tail call void %9(ptr dead_on_unwind writable sret(%"class.std::unique_ptr.20") align 8 %0, ptr noundef nonnull align 8 dereferenceable(8) %6, i64 noundef %2, i32 noundef %3) #12
  ret void
}